target datalayout = "e-m:e-p270:32:32-p271:32:32-p272:64:64-i64:64-i128:128-f80:128-n8:16:32:64-S128"
target triple = "x86_64-pc-linux-gnu"

%struct.SDL_VideoDevice = type { ptr, ptr, ptr, ptr, ptr, ptr, ptr, ptr, ptr, ptr, ptr, ptr, ptr, ptr, ptr, ptr, ptr, ptr, ptr, ptr, ptr, ptr, ptr, ptr, ptr, ptr, ptr, ptr, ptr, ptr, ptr, ptr, ptr, ptr, ptr, ptr, ptr, ptr, ptr, ptr, ptr, ptr, ptr, ptr, ptr, ptr, ptr, ptr, ptr, ptr, ptr, ptr, ptr, ptr, ptr, ptr, ptr, ptr, ptr, ptr, ptr, ptr, ptr, ptr, ptr, ptr, ptr, ptr, ptr, ptr, ptr, ptr, ptr, ptr, ptr, ptr, ptr, ptr, ptr, ptr, ptr, ptr, ptr, ptr, ptr, ptr, ptr, ptr, ptr, ptr, ptr, ptr, ptr, ptr, ptr, ptr, ptr, i64, i8, i8, i8, ptr, i32, ptr, %struct.SDL_Rect, ptr, ptr, i32, ptr, ptr, ptr, ptr, i64, ptr, i8, i32, i32, %struct.anon, ptr, ptr, ptr, ptr, ptr, ptr, %struct.SDL_AtomicInt, %struct.SDL_AtomicInt, i8, %struct.anon.0, ptr, ptr, ptr, ptr, ptr }
%struct.SDL_Rect = type { i32, i32, i32, i32 }
%struct.anon = type { i32, i32, i32, i32, i32, i32, i32, i32, i32, i32, i32, i32, i32, i32, i32, i32, i32, i32, i32, i32, i32, i32, i32, i32, i32, i32, i32, i32, i32, [256 x i8], ptr }
%struct.SDL_AtomicInt = type { i32 }
%struct.anon.0 = type { ptr, ptr, i32, [256 x i8], ptr }
%struct.SDL_VideoData = type { ptr, ptr, i32, ptr, i64, i32, ptr, i32, i64, i64, %struct.X11_ClipboardData, %struct.X11_ClipboardData, ptr, i64, %struct.X11_SettingsData, i8, %struct.anon.1, [256 x i32], i8, i8, i8, i64, i8, %struct.SDL_Point, i32, ptr, i32, i8, i32, %struct.anon.2, i8, i64, ptr, ptr, i8, i8, i8 }
%struct.X11_ClipboardData = type { ptr, ptr, ptr, i64, i32 }
%struct.X11_SettingsData = type { ptr }
%struct.anon.1 = type { i64, i64, i64, i64, i64, i64, i64, i64, i64, i64, i64, i64, i64, i64, i64, i64, i64, i64, i64, i64, i64, i64, i64, i64, i64, i64, i64, i64, i64, i64, i64, i64, i64, i64, i64, i64, i64, i64, i64, i64, i64, i64, i64, i64, i64, i64, i64, i64, i64, i64, i64, i64, i64 }
%struct.SDL_Point = type { i32, i32 }
%struct.anon.2 = type { ptr, i32, i32, i32, i16, i32, i32 }
%struct.XWindowAttributes = type { i32, i32, i32, i32, i32, i32, ptr, i64, i32, i32, i32, i32, i64, i64, i32, i64, i32, i32, i64, i64, i64, i32, ptr }
%struct.SDL_Window = type { i32, ptr, ptr, i32, i32, i32, i32, i32, i32, i32, i32, float, float, i32, i32, i64, i64, float, i8, i8, i32, i32, %struct.SDL_Rect, %struct.SDL_Rect, %struct.SDL_Rect, i8, i8, i8, %struct.SDL_DisplayMode, %struct.SDL_DisplayMode, %struct.SDL_HDROutputProperties, float, ptr, i8, i8, i8, i8, i8, i8, i8, i8, i8, i32, i32, i32, i32, %struct.SDL_Rect, i32, i8, %struct.SDL_Rect, i32, %struct.SDL_Rect, ptr, ptr, i32, float, i32, i32, ptr, ptr, ptr, ptr, ptr, ptr, ptr, ptr, ptr }
%struct.SDL_DisplayMode = type { i32, i32, i32, i32, float, float, i32, i32, ptr }
%struct.SDL_HDROutputProperties = type { float, float }
%struct.SDL_DisplayData = type { i32, ptr, i32, i32, i32, i32, i64, i8, i64, [16 x i8] }
%struct.anon.4 = type { ptr, ptr, i32, i32, i32, i32, ptr, i64, i64, i64, i32, ptr, i32, i32, i32, i32, i32, ptr, i32, i32, ptr, ptr, i32, i64, i64, ptr, ptr, ptr, ptr, i32, ptr, ptr, ptr, i32, i32, ptr, i64, i64, i32, i32, ptr, ptr, i32, ptr }
%struct.Screen = type { ptr, ptr, i64, i32, i32, i32, i32, i32, ptr, i32, ptr, ptr, i64, i64, i64, i32, i32, i32, i32, i64 }
%struct.SDL_WindowData = type { ptr, i64, ptr, i64, i8, %struct.XShmSegmentInfo, ptr, ptr, ptr, i8, i32, i32, i32, i32, i8, i8, i8, i64, i32, i64, i8, %struct.SDL_Point, %struct.XConfigureEvent, %struct.XConfigureEvent, ptr, i64, i64, i64, i8, i64, ptr, i8, [4 x i64], %struct.SDL_Rect, i64, %struct._XSyncValue, i8, %struct.SDL_Rect, %struct.SDL_DisplayMode, i32, i32, i8, i8, i8, i8, i8, i8, i8, i8, i32, %struct.XPoint, ptr, ptr, i32, i32, i8 }
%struct.XShmSegmentInfo = type { i64, i32, ptr, i32 }
%struct.XConfigureEvent = type { i32, i64, i32, ptr, i64, i64, i32, i32, i32, i32, i32, i64, i32 }
%struct._XSyncValue = type { i32, i32 }
%struct.XPoint = type { i16, i16 }
%union._XEvent = type { [24 x i64] }
%struct.XAnyEvent = type { i32, i64, i32, ptr, i64 }
%struct.XClientMessageEvent = type { i32, i64, i32, ptr, i64, i64, i32, %union.anon }
%union.anon = type { [5 x i64] }

@X11_XDeleteProperty = external global ptr, align 8
@X11_XGetWindowAttributes = external global ptr, align 8
@X11_XFlush = external global ptr, align 8
@X11_XSendEvent = external global ptr, align 8

; Function Attrs: nounwind uwtable
define internal zeroext i1 @X11_IsWindowMapped(ptr noundef %0, ptr noundef %1) #0 {
  %3 = alloca i1, align 1
  %4 = alloca ptr, align 8
  %5 = alloca ptr, align 8
  %6 = alloca ptr, align 8
  %7 = alloca ptr, align 8
  %8 = alloca %struct.XWindowAttributes, align 8
  %9 = alloca i32, align 4
  store ptr %0, ptr %4, align 8
  store ptr %1, ptr %5, align 8
  call void @llvm.lifetime.start.p0(i64 8, ptr %6) #7
  %10 = load ptr, ptr %5, align 8
  %11 = getelementptr inbounds nuw %struct.SDL_Window, ptr %10, i32 0, i32 59
  %12 = load ptr, ptr %11, align 8
  store ptr %12, ptr %6, align 8
  call void @llvm.lifetime.start.p0(i64 8, ptr %7) #7
  %13 = load ptr, ptr %4, align 8
  %14 = getelementptr inbounds nuw %struct.SDL_VideoDevice, ptr %13, i32 0, i32 128
  %15 = load ptr, ptr %14, align 8
  store ptr %15, ptr %7, align 8
  call void @llvm.lifetime.start.p0(i64 136, ptr %8) #7
  %16 = load ptr, ptr @X11_XGetWindowAttributes, align 8
  %17 = load ptr, ptr %7, align 8
  %18 = getelementptr inbounds nuw %struct.SDL_VideoData, ptr %17, i32 0, i32 0
  %19 = load ptr, ptr %18, align 8
  %20 = load ptr, ptr %6, align 8
  %21 = getelementptr inbounds nuw %struct.SDL_WindowData, ptr %20, i32 0, i32 1
  %22 = load i64, ptr %21, align 8
  %23 = call i32 %16(ptr noundef %19, i64 noundef %22, ptr noundef %8)
  %24 = getelementptr inbounds nuw %struct.XWindowAttributes, ptr %8, i32 0, i32 17
  %25 = load i32, ptr %24, align 4
  %26 = icmp ne i32 %25, 0
  br i1 %26, label %27, label %28

27:                                               ; preds = %2
  store i1 true, ptr %3, align 1
  store i32 1, ptr %9, align 4
  br label %29

28:                                               ; preds = %2
  store i1 false, ptr %3, align 1
  store i32 1, ptr %9, align 4
  br label %29

29:                                               ; preds = %28, %27
  call void @llvm.lifetime.end.p0(i64 136, ptr %8) #7
  call void @llvm.lifetime.end.p0(i64 8, ptr %7) #7
  call void @llvm.lifetime.end.p0(i64 8, ptr %6) #7
  %30 = load i1, ptr %3, align 1
  ret i1 %30
}

; Function Attrs: nounwind uwtable
define hidden zeroext i1 @X11_SetWindowModal(ptr noundef %0, ptr noundef %1, i1 noundef zeroext %2) #0 {
  %4 = alloca ptr, align 8
  %5 = alloca ptr, align 8
  %6 = alloca i8, align 1
  %7 = alloca ptr, align 8
  %8 = alloca ptr, align 8
  %9 = alloca ptr, align 8
  %10 = alloca ptr, align 8
  %11 = alloca i32, align 4
  %12 = alloca i64, align 8
  %13 = alloca i64, align 8
  %14 = alloca %union._XEvent, align 8
  store ptr %0, ptr %4, align 8
  store ptr %1, ptr %5, align 8
  %15 = zext i1 %2 to i8
  store i8 %15, ptr %6, align 1
  call void @llvm.lifetime.start.p0(i64 8, ptr %7) #7
  %16 = load ptr, ptr %5, align 8
  %17 = getelementptr inbounds nuw %struct.SDL_Window, ptr %16, i32 0, i32 59
  %18 = load ptr, ptr %17, align 8
  store ptr %18, ptr %7, align 8
  call void @llvm.lifetime.start.p0(i64 8, ptr %8) #7
  %19 = load ptr, ptr %4, align 8
  %20 = getelementptr inbounds nuw %struct.SDL_VideoDevice, ptr %19, i32 0, i32 128
  %21 = load ptr, ptr %20, align 8
  store ptr %21, ptr %8, align 8
  call void @llvm.lifetime.start.p0(i64 8, ptr %9) #7
  %22 = load ptr, ptr %5, align 8
  %23 = call ptr @SDL_GetDisplayDriverDataForWindow(ptr noundef %22)
  store ptr %23, ptr %9, align 8
  call void @llvm.lifetime.start.p0(i64 8, ptr %10) #7
  %24 = load ptr, ptr %8, align 8
  %25 = getelementptr inbounds nuw %struct.SDL_VideoData, ptr %24, i32 0, i32 0
  %26 = load ptr, ptr %25, align 8
  store ptr %26, ptr %10, align 8
  call void @llvm.lifetime.start.p0(i64 4, ptr %11) #7
  %27 = load ptr, ptr %5, align 8
  %28 = getelementptr inbounds nuw %struct.SDL_Window, ptr %27, i32 0, i32 15
  %29 = load i64, ptr %28, align 8
  %30 = trunc i64 %29 to i32
  store i32 %30, ptr %11, align 4
  call void @llvm.lifetime.start.p0(i64 8, ptr %12) #7
  %31 = load ptr, ptr %7, align 8
  %32 = getelementptr inbounds nuw %struct.SDL_WindowData, ptr %31, i32 0, i32 24
  %33 = load ptr, ptr %32, align 8
  %34 = getelementptr inbounds nuw %struct.SDL_VideoData, ptr %33, i32 0, i32 16
  %35 = getelementptr inbounds nuw %struct.anon.1, ptr %34, i32 0, i32 5
  %36 = load i64, ptr %35, align 8
  store i64 %36, ptr %12, align 8
  call void @llvm.lifetime.start.p0(i64 8, ptr %13) #7
  %37 = load ptr, ptr %7, align 8
  %38 = getelementptr inbounds nuw %struct.SDL_WindowData, ptr %37, i32 0, i32 24
  %39 = load ptr, ptr %38, align 8
  %40 = getelementptr inbounds nuw %struct.SDL_VideoData, ptr %39, i32 0, i32 16
  %41 = getelementptr inbounds nuw %struct.anon.1, ptr %40, i32 0, i32 14
  %42 = load i64, ptr %41, align 8
  store i64 %42, ptr %13, align 8
  %43 = load i8, ptr %6, align 1, !range !5, !noundef !6
  %44 = trunc i8 %43 to i1
  br i1 %44, label %45, label %50

45:                                               ; preds = %3
  %46 = load i32, ptr %11, align 4
  %47 = zext i32 %46 to i64
  %48 = or i64 %47, 4096
  %49 = trunc i64 %48 to i32
  store i32 %49, ptr %11, align 4
  br label %65

50:                                               ; preds = %3
  %51 = load i32, ptr %11, align 4
  %52 = zext i32 %51 to i64
  %53 = and i64 %52, -4097
  %54 = trunc i64 %53 to i32
  store i32 %54, ptr %11, align 4
  %55 = load ptr, ptr @X11_XDeleteProperty, align 8
  %56 = load ptr, ptr %10, align 8
  %57 = load ptr, ptr %7, align 8
  %58 = getelementptr inbounds nuw %struct.SDL_WindowData, ptr %57, i32 0, i32 1
  %59 = load i64, ptr %58, align 8
  %60 = load ptr, ptr %8, align 8
  %61 = getelementptr inbounds nuw %struct.SDL_VideoData, ptr %60, i32 0, i32 16
  %62 = getelementptr inbounds nuw %struct.anon.1, ptr %61, i32 0, i32 4
  %63 = load i64, ptr %62, align 8
  %64 = call i32 %55(ptr noundef %56, i64 noundef %59, i64 noundef %63)
  br label %65

65:                                               ; preds = %50, %45
  %66 = load ptr, ptr %4, align 8
  %67 = load ptr, ptr %5, align 8
  %68 = call zeroext i1 @X11_IsWindowMapped(ptr noundef %66, ptr noundef %67)
  br i1 %68, label %69, label %101

69:                                               ; preds = %65
  call void @llvm.lifetime.start.p0(i64 192, ptr %14) #7
  call void @llvm.memset.p0.i64(ptr align 8 %14, i8 0, i64 192, i1 false)
  %70 = getelementptr inbounds nuw %struct.XAnyEvent, ptr %14, i32 0, i32 0
  store i32 33, ptr %70, align 8
  %71 = load i64, ptr %12, align 8
  %72 = getelementptr inbounds nuw %struct.XClientMessageEvent, ptr %14, i32 0, i32 5
  store i64 %71, ptr %72, align 8
  %73 = getelementptr inbounds nuw %struct.XClientMessageEvent, ptr %14, i32 0, i32 6
  store i32 32, ptr %73, align 8
  %74 = load ptr, ptr %7, align 8
  %75 = getelementptr inbounds nuw %struct.SDL_WindowData, ptr %74, i32 0, i32 1
  %76 = load i64, ptr %75, align 8
  %77 = getelementptr inbounds nuw %struct.XClientMessageEvent, ptr %14, i32 0, i32 4
  store i64 %76, ptr %77, align 8
  %78 = load i8, ptr %6, align 1, !range !5, !noundef !6
  %79 = trunc i8 %78 to i1
  %80 = select i1 %79, i64 1, i64 0
  %81 = getelementptr inbounds nuw %struct.XClientMessageEvent, ptr %14, i32 0, i32 7
  %82 = getelementptr inbounds [5 x i64], ptr %81, i64 0, i64 0
  store i64 %80, ptr %82, align 8
  %83 = load i64, ptr %13, align 8
  %84 = getelementptr inbounds nuw %struct.XClientMessageEvent, ptr %14, i32 0, i32 7
  %85 = getelementptr inbounds [5 x i64], ptr %84, i64 0, i64 1
  store i64 %83, ptr %85, align 8
  %86 = getelementptr inbounds nuw %struct.XClientMessageEvent, ptr %14, i32 0, i32 7
  %87 = getelementptr inbounds [5 x i64], ptr %86, i64 0, i64 3
  store i64 0, ptr %87, align 8
  %88 = load ptr, ptr @X11_XSendEvent, align 8
  %89 = load ptr, ptr %10, align 8
  %90 = load ptr, ptr %10, align 8
  %91 = getelementptr inbounds nuw %struct.anon.4, ptr %90, i32 0, i32 35
  %92 = load ptr, ptr %91, align 8
  %93 = load ptr, ptr %9, align 8
  %94 = getelementptr inbounds nuw %struct.SDL_DisplayData, ptr %93, i32 0, i32 0
  %95 = load i32, ptr %94, align 8
  %96 = sext i32 %95 to i64
  %97 = getelementptr inbounds %struct.Screen, ptr %92, i64 %96
  %98 = getelementptr inbounds nuw %struct.Screen, ptr %97, i32 0, i32 2
  %99 = load i64, ptr %98, align 8
  %100 = call i32 %88(ptr noundef %89, i64 noundef %99, i32 noundef 0, i64 noundef 1572864, ptr noundef %14)
  call void @llvm.lifetime.end.p0(i64 192, ptr %14) #7
  br label %108

101:                                              ; preds = %65
  %102 = load ptr, ptr %4, align 8
  %103 = load ptr, ptr %7, align 8
  %104 = getelementptr inbounds nuw %struct.SDL_WindowData, ptr %103, i32 0, i32 1
  %105 = load i64, ptr %104, align 8
  %106 = load i32, ptr %11, align 4
  %107 = zext i32 %106 to i64
  call void @X11_SetNetWMState(ptr noundef %102, i64 noundef %105, i64 noundef %107)
  br label %108

108:                                              ; preds = %101, %69
  %109 = load ptr, ptr @X11_XFlush, align 8
  %110 = load ptr, ptr %10, align 8
  %111 = call i32 %109(ptr noundef %110)
  call void @llvm.lifetime.end.p0(i64 8, ptr %13) #7
  call void @llvm.lifetime.end.p0(i64 8, ptr %12) #7
  call void @llvm.lifetime.end.p0(i64 4, ptr %11) #7
  call void @llvm.lifetime.end.p0(i64 8, ptr %10) #7
  call void @llvm.lifetime.end.p0(i64 8, ptr %9) #7
  call void @llvm.lifetime.end.p0(i64 8, ptr %8) #7
  call void @llvm.lifetime.end.p0(i64 8, ptr %7) #7
  ret i1 true
}