; Function Attrs: nounwind uwtable
define hidden noundef zeroext i1 @X11_SetWindowModal(ptr noundef readonly captures(none) %0, ptr noundef %1, i1 noundef zeroext %2) local_unnamed_addr #0 {
  %4 = alloca %struct.XWindowAttributes, align 8
  %5 = alloca %union._XEvent, align 8
  %6 = getelementptr inbounds nuw i8, ptr %1, i64 392
  %7 = load ptr, ptr %6, align 8
  %8 = getelementptr inbounds nuw i8, ptr %0, i64 1656
  %9 = load ptr, ptr %8, align 8
  %10 = tail call ptr @SDL_GetDisplayDriverDataForWindow(ptr noundef %1) #12
  %11 = load ptr, ptr %9, align 8
  %12 = getelementptr inbounds nuw i8, ptr %1, i64 72
  %13 = load i64, ptr %12, align 8
  %14 = getelementptr inbounds nuw i8, ptr %7, i64 336
  %15 = load ptr, ptr %14, align 8
  %16 = getelementptr inbounds nuw i8, ptr %15, i64 232
  %17 = load i64, ptr %16, align 8
  %18 = getelementptr inbounds nuw i8, ptr %15, i64 304
  %19 = load i64, ptr %18, align 8
  %20 = and i64 %13, 4294963199
  br i1 %2, label %21, label %23

21:                                               ; preds = %3
  %22 = or disjoint i64 %20, 4096
  br label %30

23:                                               ; preds = %3
  %24 = load ptr, ptr @X11_XDeleteProperty, align 8
  %25 = getelementptr inbounds nuw i8, ptr %7, i64 8
  %26 = load i64, ptr %25, align 8
  %27 = getelementptr inbounds nuw i8, ptr %9, i64 224
  %28 = load i64, ptr %27, align 8
  %29 = tail call i32 %24(ptr noundef %11, i64 noundef %26, i64 noundef %28) #12
  br label %30

30:                                               ; preds = %23, %21
  %.0 = phi i64 [ %22, %21 ], [ %20, %23 ]
  %.val = load ptr, ptr %8, align 8
  %.val25 = load ptr, ptr %6, align 8
  %.val.val = load ptr, ptr %.val, align 8
  %31 = getelementptr i8, ptr %.val25, i64 8
  %.val25.val = load i64, ptr %31, align 8
  call void @llvm.lifetime.start.p0(i64 136, ptr nonnull %4) #12
  %32 = load ptr, ptr @X11_XGetWindowAttributes, align 8
  %33 = call i32 %32(ptr noundef %.val.val, i64 noundef %.val25.val, ptr noundef nonnull %4) #12
  %34 = getelementptr inbounds nuw i8, ptr %4, i64 92
  %35 = load i32, ptr %34, align 4
  %.not.i.not = icmp eq i32 %35, 0
  call void @llvm.lifetime.end.p0(i64 136, ptr nonnull %4) #12
  br i1 %.not.i.not, label %53, label %36

36:                                               ; preds = %30
  call void @llvm.lifetime.start.p0(i64 192, ptr nonnull %5) #12
  call void @llvm.memset.p0.i64(ptr noundef nonnull align 8 dereferenceable(192) %5, i8 0, i64 192, i1 false)
  store i32 33, ptr %5, align 8
  %37 = getelementptr inbounds nuw i8, ptr %5, i64 40
  store i64 %17, ptr %37, align 8
  %38 = getelementptr inbounds nuw i8, ptr %5, i64 48
  store i32 32, ptr %38, align 8
  %39 = getelementptr inbounds nuw i8, ptr %7, i64 8
  %40 = load i64, ptr %39, align 8
  %41 = getelementptr inbounds nuw i8, ptr %5, i64 32
  store i64 %40, ptr %41, align 8
  %42 = zext i1 %2 to i64
  %43 = getelementptr inbounds nuw i8, ptr %5, i64 56
  store i64 %42, ptr %43, align 8
  %44 = getelementptr inbounds nuw i8, ptr %5, i64 64
  store i64 %19, ptr %44, align 8
  %45 = load ptr, ptr @X11_XSendEvent, align 8
  %46 = getelementptr inbounds nuw i8, ptr %11, i64 232
  %47 = load ptr, ptr %46, align 8
  %48 = load i32, ptr %10, align 8
  %49 = sext i32 %48 to i64
  %50 = getelementptr inbounds %struct.Screen, ptr %47, i64 %49, i32 2
  %51 = load i64, ptr %50, align 8
  %52 = call i32 %45(ptr noundef %11, i64 noundef %51, i32 noundef 0, i64 noundef 1572864, ptr noundef nonnull %5) #12
  call void @llvm.lifetime.end.p0(i64 192, ptr nonnull %5) #12
  br label %56

53:                                               ; preds = %30
  %54 = getelementptr inbounds nuw i8, ptr %7, i64 8
  %55 = load i64, ptr %54, align 8
  call void @X11_SetNetWMState(ptr noundef nonnull %0, i64 noundef %55, i64 noundef %.0)
  br label %56

56:                                               ; preds = %53, %36
  %57 = load ptr, ptr @X11_XFlush, align 8
  %58 = call i32 %57(ptr noundef %11) #12
  ret i1 true
}